target datalayout = "e-m:e-p270:32:32-p271:32:32-p272:64:64-i64:64-i128:128-f80:128-n8:16:32:64-S128"
target triple = "x86_64-pc-linux-gnu"

%struct.GtkApi = type { i32, ptr, ptr, ptr, ptr, ptr, ptr, ptr, ptr, ptr, ptr, ptr, ptr, ptr, ptr, ptr, ptr, ptr, ptr, ptr, ptr, ptr, ptr, ptr, ptr, ptr, ptr, ptr, ptr, ptr, ptr, ptr, ptr, ptr, ptr, ptr, ptr, ptr, ptr, ptr, ptr, ptr, ptr, ptr, ptr, ptr, ptr, ptr, ptr, ptr, ptr, ptr, ptr, ptr, ptr, ptr, ptr, ptr, ptr, ptr, ptr, ptr, ptr, ptr, ptr, ptr, ptr, ptr, ptr, ptr, ptr, ptr, ptr, ptr, ptr, ptr, ptr, ptr, ptr, ptr, ptr, ptr, ptr, ptr, ptr, ptr, ptr, ptr, ptr, ptr, ptr, ptr, ptr, ptr, ptr, ptr, ptr, ptr, ptr, ptr, ptr, ptr, ptr, ptr, ptr }
%struct.JNINativeInterface_ = type { ptr, ptr, ptr, ptr, ptr, ptr, ptr, ptr, ptr, ptr, ptr, ptr, ptr, ptr, ptr, ptr, ptr, ptr, ptr, ptr, ptr, ptr, ptr, ptr, ptr, ptr, ptr, ptr, ptr, ptr, ptr, ptr, ptr, ptr, ptr, ptr, ptr, ptr, ptr, ptr, ptr, ptr, ptr, ptr, ptr, ptr, ptr, ptr, ptr, ptr, ptr, ptr, ptr, ptr, ptr, ptr, ptr, ptr, ptr, ptr, ptr, ptr, ptr, ptr, ptr, ptr, ptr, ptr, ptr, ptr, ptr, ptr, ptr, ptr, ptr, ptr, ptr, ptr, ptr, ptr, ptr, ptr, ptr, ptr, ptr, ptr, ptr, ptr, ptr, ptr, ptr, ptr, ptr, ptr, ptr, ptr, ptr, ptr, ptr, ptr, ptr, ptr, ptr, ptr, ptr, ptr, ptr, ptr, ptr, ptr, ptr, ptr, ptr, ptr, ptr, ptr, ptr, ptr, ptr, ptr, ptr, ptr, ptr, ptr, ptr, ptr, ptr, ptr, ptr, ptr, ptr, ptr, ptr, ptr, ptr, ptr, ptr, ptr, ptr, ptr, ptr, ptr, ptr, ptr, ptr, ptr, ptr, ptr, ptr, ptr, ptr, ptr, ptr, ptr, ptr, ptr, ptr, ptr, ptr, ptr, ptr, ptr, ptr, ptr, ptr, ptr, ptr, ptr, ptr, ptr, ptr, ptr, ptr, ptr, ptr, ptr, ptr, ptr, ptr, ptr, ptr, ptr, ptr, ptr, ptr, ptr, ptr, ptr, ptr, ptr, ptr, ptr, ptr, ptr, ptr, ptr, ptr, ptr, ptr, ptr, ptr, ptr, ptr, ptr, ptr, ptr, ptr, ptr, ptr, ptr, ptr, ptr, ptr, ptr, ptr, ptr, ptr, ptr, ptr, ptr, ptr, ptr, ptr, ptr, ptr, ptr, ptr, ptr, ptr, ptr, ptr, ptr, ptr, ptr, ptr }

@gtk = external global ptr, align 8
@this_class = internal global ptr null, align 8
@.str = private unnamed_addr constant [17 x i8] c"loadIconCallback\00", align 1
@.str.1 = private unnamed_addr constant [12 x i8] c"([BIIIIIZ)V\00", align 1
@icon_upcall_method = internal global ptr null, align 8
@.str.2 = private unnamed_addr constant [17 x i8] c"OutOfMemoryError\00", align 1

; Function Attrs: nounwind uwtable
define hidden zeroext i8 @init_method(ptr noundef %0, ptr noundef %1) #0 {
  %3 = alloca i8, align 1
  %4 = alloca ptr, align 8
  %5 = alloca ptr, align 8
  store ptr %0, ptr %4, align 8
  store ptr %1, ptr %5, align 8
  %6 = load ptr, ptr @this_class, align 8
  %7 = icmp eq ptr %6, null
  br i1 %7, label %8, label %35

8:                                                ; preds = %2
  %9 = load ptr, ptr %4, align 8
  %10 = load ptr, ptr %9, align 8
  %11 = getelementptr inbounds %struct.JNINativeInterface_, ptr %10, i32 0, i32 21
  %12 = load ptr, ptr %11, align 8
  %13 = load ptr, ptr %4, align 8
  %14 = load ptr, ptr %4, align 8
  %15 = load ptr, ptr %14, align 8
  %16 = getelementptr inbounds %struct.JNINativeInterface_, ptr %15, i32 0, i32 31
  %17 = load ptr, ptr %16, align 8
  %18 = load ptr, ptr %4, align 8
  %19 = load ptr, ptr %5, align 8
  %20 = call ptr %17(ptr noundef %18, ptr noundef %19)
  %21 = call ptr %12(ptr noundef %13, ptr noundef %20)
  store ptr %21, ptr @this_class, align 8
  %22 = load ptr, ptr %4, align 8
  %23 = load ptr, ptr %22, align 8
  %24 = getelementptr inbounds %struct.JNINativeInterface_, ptr %23, i32 0, i32 33
  %25 = load ptr, ptr %24, align 8
  %26 = load ptr, ptr %4, align 8
  %27 = load ptr, ptr @this_class, align 8
  %28 = call ptr %25(ptr noundef %26, ptr noundef %27, ptr noundef @.str, ptr noundef @.str.1)
  store ptr %28, ptr @icon_upcall_method, align 8
  br label %29

29:                                               ; preds = %8
  %30 = load ptr, ptr @icon_upcall_method, align 8
  %31 = icmp eq ptr %30, null
  br i1 %31, label %32, label %33

32:                                               ; preds = %29
  store i8 0, ptr %3, align 1
  br label %36

33:                                               ; preds = %29
  br label %34

34:                                               ; preds = %33
  br label %35

35:                                               ; preds = %34, %2
  store i8 1, ptr %3, align 1
  br label %36

36:                                               ; preds = %35, %32
  %37 = load i8, ptr %3, align 1
  ret i8 %37
}

; Function Attrs: nounwind uwtable
define zeroext i8 @Java_sun_awt_UNIXToolkit_load_1gtk_1icon(ptr noundef %0, ptr noundef %1, ptr noundef %2) #0 {
  %4 = alloca i8, align 1
  %5 = alloca ptr, align 8
  %6 = alloca ptr, align 8
  %7 = alloca ptr, align 8
  %8 = alloca i32, align 4
  %9 = alloca i32, align 4
  %10 = alloca ptr, align 8
  %11 = alloca ptr, align 8
  %12 = alloca i8, align 1
  store ptr %0, ptr %5, align 8
  store ptr %1, ptr %6, align 8
  store ptr %2, ptr %7, align 8
  store ptr null, ptr %10, align 8
  store ptr null, ptr %11, align 8
  %13 = load ptr, ptr %7, align 8
  %14 = icmp eq ptr %13, null
  br i1 %14, label %15, label %16

15:                                               ; preds = %3
  store i8 0, ptr %4, align 1
  br label %88

16:                                               ; preds = %3
  %17 = load ptr, ptr %5, align 8
  %18 = load ptr, ptr %17, align 8
  %19 = getelementptr inbounds %struct.JNINativeInterface_, ptr %18, i32 0, i32 168
  %20 = load ptr, ptr %19, align 8
  %21 = load ptr, ptr %5, align 8
  %22 = load ptr, ptr %7, align 8
  %23 = call i32 %20(ptr noundef %21, ptr noundef %22)
  store i32 %23, ptr %8, align 4
  %24 = load ptr, ptr %5, align 8
  %25 = load ptr, ptr %24, align 8
  %26 = getelementptr inbounds %struct.JNINativeInterface_, ptr %25, i32 0, i32 164
  %27 = load ptr, ptr %26, align 8
  %28 = load ptr, ptr %5, align 8
  %29 = load ptr, ptr %7, align 8
  %30 = call i32 %27(ptr noundef %28, ptr noundef %29)
  store i32 %30, ptr %9, align 4
  %31 = load i32, ptr %8, align 4
  %32 = add nsw i32 %31, 1
  %33 = icmp sge i32 %32, 0
  br i1 %33, label %34, label %54

34:                                               ; preds = %16
  %35 = load i32, ptr %8, align 4
  %36 = add nsw i32 %35, 1
  %37 = sext i32 %36 to i64
  %38 = icmp ule i64 %37, -1
  br i1 %38, label %39, label %54

39:                                               ; preds = %34
  %40 = load i32, ptr %8, align 4
  %41 = add nsw i32 %40, 1
  %42 = icmp eq i32 %41, 0
  br i1 %42, label %48, label %43

43:                                               ; preds = %39
  %44 = load i32, ptr %8, align 4
  %45 = add nsw i32 %44, 1
  %46 = sext i32 %45 to i64
  %47 = icmp ule i64 %46, -1
  br i1 %47, label %48, label %54

48:                                               ; preds = %43, %39
  %49 = load i32, ptr %8, align 4
  %50 = add nsw i32 %49, 1
  %51 = sext i32 %50 to i64
  %52 = mul i64 1, %51
  %53 = call noalias ptr @malloc(i64 noundef %52) #4
  br label %55

54:                                               ; preds = %43, %34, %16
  br label %55

55:                                               ; preds = %54, %48
  %56 = phi ptr [ %53, %48 ], [ null, %54 ]
  store ptr %56, ptr %10, align 8
  %57 = load ptr, ptr %10, align 8
  %58 = icmp eq ptr %57, null
  br i1 %58, label %59, label %61

59:                                               ; preds = %55
  %60 = load ptr, ptr %5, align 8
  call void @JNU_ThrowOutOfMemoryError(ptr noundef %60, ptr noundef @.str.2)
  store i8 0, ptr %4, align 1
  br label %88

61:                                               ; preds = %55
  %62 = load ptr, ptr %5, align 8
  %63 = load ptr, ptr %6, align 8
  %64 = call zeroext i8 @init_method(ptr noundef %62, ptr noundef %63)
  %65 = icmp ne i8 %64, 0
  br i1 %65, label %68, label %66

66:                                               ; preds = %61
  %67 = load ptr, ptr %10, align 8
  call void @free(ptr noundef %67) #5
  store i8 0, ptr %4, align 1
  br label %88

68:                                               ; preds = %61
  %69 = load ptr, ptr %5, align 8
  %70 = load ptr, ptr %69, align 8
  %71 = getelementptr inbounds %struct.JNINativeInterface_, ptr %70, i32 0, i32 221
  %72 = load ptr, ptr %71, align 8
  %73 = load ptr, ptr %5, align 8
  %74 = load ptr, ptr %7, align 8
  %75 = load i32, ptr %9, align 4
  %76 = load ptr, ptr %10, align 8
  call void %72(ptr noundef %73, ptr noundef %74, i32 noundef 0, i32 noundef %75, ptr noundef %76)
  %77 = load ptr, ptr @gtk, align 8
  %78 = getelementptr inbounds %struct.GtkApi, ptr %77, i32 0, i32 30
  %79 = load ptr, ptr %78, align 8
  %80 = load ptr, ptr %5, align 8
  %81 = load ptr, ptr %10, align 8
  %82 = load ptr, ptr %11, align 8
  %83 = load ptr, ptr @icon_upcall_method, align 8
  %84 = load ptr, ptr %6, align 8
  %85 = call zeroext i8 %79(ptr noundef %80, ptr noundef %81, ptr noundef %82, ptr noundef %83, ptr noundef %84)
  store i8 %85, ptr %12, align 1
  %86 = load ptr, ptr %10, align 8
  call void @free(ptr noundef %86) #5
  %87 = load i8, ptr %12, align 1
  store i8 %87, ptr %4, align 1
  br label %88

88:                                               ; preds = %68, %66, %59, %15
  %89 = load i8, ptr %4, align 1
  ret i8 %89
}