; Function Attrs: nounwind uwtable
define zeroext i8 @Java_sun_awt_UNIXToolkit_load_1gtk_1icon(ptr noundef %0, ptr noundef %1, ptr noundef %2) local_unnamed_addr #0 {
  %4 = icmp eq ptr %2, null
  br i1 %4, label %45, label %5

5:                                                ; preds = %3
  %6 = load ptr, ptr %0, align 8
  %7 = getelementptr inbounds i8, ptr %6, i64 1344
  %8 = load ptr, ptr %7, align 8
  %9 = tail call i32 %8(ptr noundef nonnull %0, ptr noundef nonnull %2) #6
  %10 = load ptr, ptr %0, align 8
  %11 = getelementptr inbounds i8, ptr %10, i64 1312
  %12 = load ptr, ptr %11, align 8
  %13 = tail call i32 %12(ptr noundef nonnull %0, ptr noundef nonnull %2) #6
  %14 = icmp sgt i32 %9, -2
  br i1 %14, label %15, label %.thread

15:                                               ; preds = %5
  %16 = add nsw i32 %9, 1
  %17 = zext nneg i32 %16 to i64
  %18 = tail call noalias ptr @malloc(i64 noundef %17) #7
  %19 = icmp eq ptr %18, null
  br i1 %19, label %.thread, label %20

.thread:                                          ; preds = %5, %15
  tail call void @JNU_ThrowOutOfMemoryError(ptr noundef nonnull %0, ptr noundef nonnull @.str.2) #6
  br label %45

20:                                               ; preds = %15
  %21 = load ptr, ptr @this_class, align 8
  %22 = icmp eq ptr %21, null
  br i1 %22, label %23, label %init_method.exit

23:                                               ; preds = %20
  %24 = load ptr, ptr %0, align 8
  %25 = getelementptr inbounds i8, ptr %24, i64 168
  %26 = load ptr, ptr %25, align 8
  %27 = getelementptr inbounds i8, ptr %24, i64 248
  %28 = load ptr, ptr %27, align 8
  %29 = tail call ptr %28(ptr noundef nonnull %0, ptr noundef %1) #6
  %30 = tail call ptr %26(ptr noundef nonnull %0, ptr noundef %29) #6
  store ptr %30, ptr @this_class, align 8
  %31 = load ptr, ptr %0, align 8
  %32 = getelementptr inbounds i8, ptr %31, i64 264
  %33 = load ptr, ptr %32, align 8
  %34 = tail call ptr %33(ptr noundef nonnull %0, ptr noundef %30, ptr noundef nonnull @.str, ptr noundef nonnull @.str.1) #6
  store ptr %34, ptr @icon_upcall_method, align 8
  %35 = icmp eq ptr %34, null
  br i1 %35, label %36, label %init_method.exit

36:                                               ; preds = %23
  tail call void @free(ptr noundef nonnull %18) #6
  br label %45

init_method.exit:                                 ; preds = %23, %20
  %37 = load ptr, ptr %0, align 8
  %38 = getelementptr inbounds i8, ptr %37, i64 1768
  %39 = load ptr, ptr %38, align 8
  tail call void %39(ptr noundef nonnull %0, ptr noundef nonnull %2, i32 noundef 0, i32 noundef %13, ptr noundef nonnull %18) #6
  %40 = load ptr, ptr @gtk, align 8
  %41 = getelementptr inbounds i8, ptr %40, i64 240
  %42 = load ptr, ptr %41, align 8
  %43 = load ptr, ptr @icon_upcall_method, align 8
  %44 = tail call zeroext i8 %42(ptr noundef nonnull %0, ptr noundef nonnull %18, ptr noundef null, ptr noundef %43, ptr noundef %1) #6
  tail call void @free(ptr noundef nonnull %18) #6
  br label %45

45:                                               ; preds = %3, %init_method.exit, %36, %.thread
  %.0 = phi i8 [ 0, %.thread ], [ %44, %init_method.exit ], [ 0, %36 ], [ 0, %3 ]
  ret i8 %.0
}